; Function Attrs: cold mustprogress nofree norecurse nosync nounwind optsize willreturn memory(read, inaccessiblemem: none) uwtable
define internal range(i32 -22, 1) i32 @init(ptr noundef readonly captures(none) %0) #0 {
  %2 = getelementptr inbounds nuw i8, ptr %0, i64 72
  %3 = load ptr, ptr %2, align 8, !tbaa !4
  %4 = getelementptr inbounds nuw i8, ptr %3, i64 24
  %5 = load i64, ptr %4, align 8, !tbaa !20
  %6 = sub nsw i64 9223372036854775807, %5
  %7 = getelementptr inbounds nuw i8, ptr %3, i64 32
  %8 = load i64, ptr %7, align 8, !tbaa !24
  %9 = icmp slt i64 %6, %8
  %. = select i1 %9, i32 -22, i32 0
  ret i32 %.
}